; Function Attrs: mustprogress nounwind uwtable
define internal fastcc noundef ptr @_ZL16getKnownConstantPN4llvm5ValueENS_13jumpthreading18ConstantPreferenceE(ptr noundef %0, i32 noundef %1) unnamed_addr #0 {
  %.not = icmp eq ptr %0, null
  br i1 %.not, label %14, label %3

3:                                                ; preds = %2
  %4 = load i8, ptr %0, align 8
  %5 = and i8 %4, -2
  %spec.select.i.i.i.i.i.i.i.i.not = icmp eq i8 %5, 12
  br i1 %spec.select.i.i.i.i.i.i.i.i.not, label %14, label %6

6:                                                ; preds = %3
  %7 = icmp eq i32 %1, 1
  br i1 %7, label %8, label %12

8:                                                ; preds = %6
  %9 = tail call noundef ptr @_ZNK4llvm5Value17stripPointerCastsEv(ptr noundef nonnull align 8 dereferenceable(24) %0) #19
  %10 = load i8, ptr %9, align 8
  %11 = icmp eq i8 %10, 4
  %spec.select.i.i10 = select i1 %11, ptr %9, ptr null
  br label %14

12:                                               ; preds = %6
  %13 = icmp eq i8 %4, 17
  %spec.select.i.i11 = select i1 %13, ptr %0, ptr null
  br label %14

14:                                               ; preds = %3, %2, %12, %8
  %.0 = phi ptr [ %spec.select.i.i10, %8 ], [ %spec.select.i.i11, %12 ], [ null, %2 ], [ %0, %3 ]
  ret ptr %.0
}